target datalayout = "e-m:e-p270:32:32-p271:32:32-p272:64:64-i64:64-i128:128-f80:128-n8:16:32:64-S128"
target triple = "x86_64-unknown-linux-gnu"

; Function Attrs: mustprogress uwtable
define void @_ZNK8QuantLib18LMMDriftCalculator14computeReducedERKNS_13LMMCurveStateERSt6vectorIdSaIdEE(ptr noundef nonnull align 8 dereferenceable(232) %this, ptr noundef nonnull align 8 dereferenceable(224) %cs, ptr noundef nonnull align 8 dereferenceable(24) %drifts) #0 align 2 {
entry:
  %this.addr = alloca ptr, align 8
  %cs.addr = alloca ptr, align 8
  %drifts.addr = alloca ptr, align 8
  store ptr %this, ptr %this.addr, align 8, !tbaa !3
  store ptr %cs, ptr %cs.addr, align 8, !tbaa !3
  store ptr %drifts, ptr %drifts.addr, align 8, !tbaa !3
  %this1 = load ptr, ptr %this.addr, align 8
  %0 = load ptr, ptr %cs.addr, align 8, !tbaa !3
  %vtable = load ptr, ptr %0, align 8, !tbaa !40
  %vfn = getelementptr inbounds ptr, ptr %vtable, i64 8
  %1 = load ptr, ptr %vfn, align 8
  %call = call noundef nonnull align 8 dereferenceable(24) ptr %1(ptr noundef nonnull align 8 dereferenceable(224) %0)
  %2 = load ptr, ptr %drifts.addr, align 8, !tbaa !3
  call void @_ZNK8QuantLib18LMMDriftCalculator14computeReducedERKSt6vectorIdSaIdEERS3_(ptr noundef nonnull align 8 dereferenceable(232) %this1, ptr noundef nonnull align 8 dereferenceable(24) %call, ptr noundef nonnull align 8 dereferenceable(24) %2)
  ret void
}